target datalayout = "e-m:e-p270:32:32-p271:32:32-p272:64:64-i64:64-i128:128-f80:128-n8:16:32:64-S128"
target triple = "x86_64-pc-linux-gnu"

%"struct.icu_77::units::Factor" = type { double, double, double, i8, [15 x i32] }

; Function Attrs: inlinehint mustprogress nounwind uwtable
define linkonce_odr noundef double @_ZSt3powIdiEN9__gnu_cxx9__promoteIDTplcvNS1_IT_Xsr3std12__is_integerIS2_EE7__valueEE6__typeELi0EcvNS1_IT0_Xsr3std12__is_integerIS5_EE7__valueEE6__typeELi0EEXsr3std12__is_integerIS8_EE7__valueEE6__typeES2_S5_(double noundef %0, i32 noundef %1) #2 comdat {
  %3 = alloca double, align 8
  %4 = alloca i32, align 4
  store double %0, ptr %3, align 8, !tbaa !32
  store i32 %1, ptr %4, align 4, !tbaa !14
  %5 = load double, ptr %3, align 8, !tbaa !32
  %6 = load i32, ptr %4, align 4, !tbaa !14
  %7 = sitofp i32 %6 to double
  %8 = call double @pow(double noundef %5, double noundef %7) #12, !tbaa !14
  ret double %8
}

; Function Attrs: mustprogress uwtable
define void @_ZN6icu_775units6Factor19substituteConstantsEv(ptr noundef nonnull align 8 dereferenceable(88) %0) #1 align 2 {
  %2 = alloca ptr, align 8
  %3 = alloca i32, align 4
  %4 = alloca i32, align 4
  %5 = alloca i32, align 4
  %6 = alloca double, align 8
  store ptr %0, ptr %2, align 8, !tbaa !23
  %7 = load ptr, ptr %2, align 8
  call void @llvm.lifetime.start.p0(i64 4, ptr %3) #12
  store i32 0, ptr %3, align 4, !tbaa !14
  br label %8

8:                                                ; preds = %57, %1
  %9 = load i32, ptr %3, align 4, !tbaa !14
  %10 = icmp slt i32 %9, 15
  br i1 %10, label %12, label %11

11:                                               ; preds = %8
  call void @llvm.lifetime.end.p0(i64 4, ptr %3) #12
  br label %60

12:                                               ; preds = %8
  %13 = getelementptr inbounds nuw %"struct.icu_77::units::Factor", ptr %7, i32 0, i32 4
  %14 = load i32, ptr %3, align 4, !tbaa !14
  %15 = sext i32 %14 to i64
  %16 = getelementptr inbounds [15 x i32], ptr %13, i64 0, i64 %15
  %17 = load i32, ptr %16, align 4, !tbaa !14
  %18 = icmp eq i32 %17, 0
  br i1 %18, label %19, label %20

19:                                               ; preds = %12
  br label %57

20:                                               ; preds = %12
  call void @llvm.lifetime.start.p0(i64 4, ptr %4) #12
  %21 = getelementptr inbounds nuw %"struct.icu_77::units::Factor", ptr %7, i32 0, i32 4
  %22 = load i32, ptr %3, align 4, !tbaa !14
  %23 = sext i32 %22 to i64
  %24 = getelementptr inbounds [15 x i32], ptr %21, i64 0, i64 %23
  %25 = load i32, ptr %24, align 4, !tbaa !14
  %26 = call i32 @llvm.abs.i32(i32 %25, i1 true)
  store i32 %26, ptr %4, align 4, !tbaa !14
  call void @llvm.lifetime.start.p0(i64 4, ptr %5) #12
  %27 = getelementptr inbounds nuw %"struct.icu_77::units::Factor", ptr %7, i32 0, i32 4
  %28 = load i32, ptr %3, align 4, !tbaa !14
  %29 = sext i32 %28 to i64
  %30 = getelementptr inbounds [15 x i32], ptr %27, i64 0, i64 %29
  %31 = load i32, ptr %30, align 4, !tbaa !14
  %32 = icmp slt i32 %31, 0
  %33 = select i1 %32, i32 -1, i32 1
  store i32 %33, ptr %5, align 4, !tbaa !43
  call void @llvm.lifetime.start.p0(i64 8, ptr %6) #12
  %34 = load i32, ptr %3, align 4, !tbaa !14
  %35 = sext i32 %34 to i64
  %36 = getelementptr inbounds [15 x double], ptr @_ZN6icu_775unitsL15constantsValuesE, i64 0, i64 %35
  %37 = load double, ptr %36, align 8, !tbaa !32
  %38 = load i32, ptr %4, align 4, !tbaa !14
  %39 = call noundef double @_ZSt3powIdiEN9__gnu_cxx9__promoteIDTplcvNS1_IT_Xsr3std12__is_integerIS2_EE7__valueEE6__typeELi0EcvNS1_IT0_Xsr3std12__is_integerIS5_EE7__valueEE6__typeELi0EEXsr3std12__is_integerIS8_EE7__valueEE6__typeES2_S5_(double noundef %37, i32 noundef %38)
  store double %39, ptr %6, align 8, !tbaa !32
  %40 = load i32, ptr %5, align 4, !tbaa !43
  %41 = icmp eq i32 %40, -1
  br i1 %41, label %42, label %47

42:                                               ; preds = %20
  %43 = load double, ptr %6, align 8, !tbaa !32
  %44 = getelementptr inbounds nuw %"struct.icu_77::units::Factor", ptr %7, i32 0, i32 1
  %45 = load double, ptr %44, align 8, !tbaa !29
  %46 = fmul double %45, %43
  store double %46, ptr %44, align 8, !tbaa !29
  br label %52

47:                                               ; preds = %20
  %48 = load double, ptr %6, align 8, !tbaa !32
  %49 = getelementptr inbounds nuw %"struct.icu_77::units::Factor", ptr %7, i32 0, i32 0
  %50 = load double, ptr %49, align 8, !tbaa !25
  %51 = fmul double %50, %48
  store double %51, ptr %49, align 8, !tbaa !25
  br label %52

52:                                               ; preds = %47, %42
  %53 = getelementptr inbounds nuw %"struct.icu_77::units::Factor", ptr %7, i32 0, i32 4
  %54 = load i32, ptr %3, align 4, !tbaa !14
  %55 = sext i32 %54 to i64
  %56 = getelementptr inbounds [15 x i32], ptr %53, i64 0, i64 %55
  store i32 0, ptr %56, align 4, !tbaa !14
  call void @llvm.lifetime.end.p0(i64 8, ptr %6) #12
  call void @llvm.lifetime.end.p0(i64 4, ptr %5) #12
  call void @llvm.lifetime.end.p0(i64 4, ptr %4) #12
  br label %57

57:                                               ; preds = %52, %19
  %58 = load i32, ptr %3, align 4, !tbaa !14
  %59 = add nsw i32 %58, 1
  store i32 %59, ptr %3, align 4, !tbaa !14
  br label %8, !llvm.loop !45

60:                                               ; preds = %11
  ret void
}