; Function Attrs: mustprogress nofree nounwind memory(write, argmem: readwrite) uwtable
define void @_ZN6icu_775units6Factor19substituteConstantsEv(ptr noundef nonnull align 8 captures(none) dereferenceable(88) %0) local_unnamed_addr #12 align 2 {
  %2 = getelementptr inbounds nuw i8, ptr %0, i64 28
  %.promoted = load double, ptr %0, align 8
  %3 = getelementptr inbounds nuw i8, ptr %0, i64 8
  %.promoted13 = load double, ptr %3, align 8
  br label %5

4:                                                ; preds = %25
  ret void

5:                                                ; preds = %1, %25
  %indvars.iv = phi i64 [ 0, %1 ], [ %indvars.iv.next, %25 ]
  %6 = phi double [ %.promoted13, %1 ], [ %26, %25 ]
  %7 = phi double [ %.promoted, %1 ], [ %27, %25 ]
  %8 = getelementptr inbounds nuw [15 x i32], ptr %2, i64 0, i64 %indvars.iv
  %9 = load i32, ptr %8, align 4, !tbaa !12
  %10 = icmp eq i32 %9, 0
  br i1 %10, label %25, label %11

11:                                               ; preds = %5
  %12 = tail call i32 @llvm.abs.i32(i32 %9, i1 true)
  %13 = icmp slt i32 %9, 0
  %14 = getelementptr inbounds nuw [15 x double], ptr @_ZN6icu_775unitsL15constantsValuesE, i64 0, i64 %indvars.iv
  %15 = load double, ptr %14, align 8, !tbaa !20
  %16 = uitofp nneg i32 %12 to double
  %17 = tail call noundef double @pow(double noundef %15, double noundef %16) #21, !tbaa !12
  br i1 %13, label %18, label %20

18:                                               ; preds = %11
  %19 = fmul double %17, %6
  store double %19, ptr %3, align 8, !tbaa !19
  br label %22

20:                                               ; preds = %11
  %21 = fmul double %17, %7
  store double %21, ptr %0, align 8, !tbaa !15
  br label %22

22:                                               ; preds = %20, %18
  %23 = phi double [ %6, %20 ], [ %19, %18 ]
  %24 = phi double [ %21, %20 ], [ %7, %18 ]
  store i32 0, ptr %8, align 4, !tbaa !12
  br label %25

25:                                               ; preds = %5, %22
  %26 = phi double [ %6, %5 ], [ %23, %22 ]
  %27 = phi double [ %7, %5 ], [ %24, %22 ]
  %indvars.iv.next = add nuw nsw i64 %indvars.iv, 1
  %exitcond.not = icmp eq i64 %indvars.iv.next, 15
  br i1 %exitcond.not, label %4, label %5, !llvm.loop !26
}